target datalayout = "e-m:e-p270:32:32-p271:32:32-p272:64:64-i64:64-i128:128-f80:128-n8:16:32:64-S128"
target triple = "x86_64-pc-linux-gnu"

%"class.std::__1::chrono::time_zone" = type { %"class.std::__1::unique_ptr" }
%"class.std::__1::unique_ptr" = type { ptr }

; Function Attrs: mustprogress nounwind uwtable
define linkonce_odr hidden void @_ZNSt3__110unique_ptrINS_6chrono9time_zone6__implENS_14default_deleteIS3_EEE5resetB8ne210000EPS3_(ptr noundef nonnull align 8 dereferenceable(8) %0, ptr noundef %1) #4 comdat align 2 {
  %3 = alloca ptr, align 8
  %4 = alloca ptr, align 8
  %5 = alloca ptr, align 8
  store ptr %0, ptr %3, align 8, !tbaa !22
  store ptr %1, ptr %4, align 8, !tbaa !29
  %6 = load ptr, ptr %3, align 8
  call void @llvm.lifetime.start.p0(i64 8, ptr %5) #24
  %7 = getelementptr inbounds nuw %"class.std::__1::unique_ptr", ptr %6, i32 0, i32 0
  %8 = load ptr, ptr %7, align 8, !tbaa !26
  store ptr %8, ptr %5, align 8, !tbaa !29
  %9 = load ptr, ptr %4, align 8, !tbaa !29
  %10 = getelementptr inbounds nuw %"class.std::__1::unique_ptr", ptr %6, i32 0, i32 0
  store ptr %9, ptr %10, align 8, !tbaa !26
  %11 = load ptr, ptr %5, align 8, !tbaa !29
  %12 = icmp ne ptr %11, null
  br i1 %12, label %13, label %15

13:                                               ; preds = %2
  %14 = load ptr, ptr %5, align 8, !tbaa !29
  call void @_ZNKSt3__114default_deleteINS_6chrono9time_zone6__implEEclB8ne210000EPS3_(ptr noundef nonnull align 1 dereferenceable(1) %6, ptr noundef %14) #24
  br label %15

15:                                               ; preds = %13, %2
  call void @llvm.lifetime.end.p0(i64 8, ptr %5) #24
  ret void
}

; Function Attrs: mustprogress nounwind uwtable
define linkonce_odr hidden void @_ZNSt3__110unique_ptrINS_6chrono9time_zone6__implENS_14default_deleteIS3_EEED2B8ne210000Ev(ptr noundef nonnull align 8 dereferenceable(8) %0) unnamed_addr #4 comdat align 2 {
  %2 = alloca ptr, align 8
  store ptr %0, ptr %2, align 8, !tbaa !22
  %3 = load ptr, ptr %2, align 8
  call void @_ZNSt3__110unique_ptrINS_6chrono9time_zone6__implENS_14default_deleteIS3_EEE5resetB8ne210000EPS3_(ptr noundef nonnull align 8 dereferenceable(8) %3, ptr noundef null) #24
  ret void
}

; Function Attrs: mustprogress nounwind uwtable
define dso_local void @_ZNSt3__16chrono9time_zoneD2B8ne210000Ev(ptr noundef nonnull align 8 dereferenceable(8) %0) unnamed_addr #4 align 2 {
  %2 = alloca ptr, align 8
  store ptr %0, ptr %2, align 8, !tbaa !24
  %3 = load ptr, ptr %2, align 8
  %4 = getelementptr inbounds nuw %"class.std::__1::chrono::time_zone", ptr %3, i32 0, i32 0
  call void @_ZNSt3__110unique_ptrINS_6chrono9time_zone6__implENS_14default_deleteIS3_EEED2B8ne210000Ev(ptr noundef nonnull align 8 dereferenceable(8) %4) #24
  ret void
}