; Function Attrs: mustprogress nounwind uwtable
define dso_local void @_ZNSt3__16chrono9time_zoneD2B8ne210000Ev(ptr noundef nonnull align 8 dereferenceable(8) %0) unnamed_addr #3 align 2 {
  %2 = load ptr, ptr %0, align 8, !tbaa !13
  store ptr null, ptr %0, align 8, !tbaa !13
  %.not.i.i = icmp eq ptr %2, null
  br i1 %.not.i.i, label %_ZNSt3__110unique_ptrINS_6chrono9time_zone6__implENS_14default_deleteIS3_EEED2B8ne210000Ev.exit, label %3

3:                                                ; preds = %1
  tail call void @_ZNKSt3__114default_deleteINS_6chrono9time_zone6__implEEclB8ne210000EPS3_(ptr noundef nonnull align 8 dereferenceable(8) %0, ptr noundef nonnull %2) #30
  br label %_ZNSt3__110unique_ptrINS_6chrono9time_zone6__implENS_14default_deleteIS3_EEED2B8ne210000Ev.exit

_ZNSt3__110unique_ptrINS_6chrono9time_zone6__implENS_14default_deleteIS3_EEED2B8ne210000Ev.exit: ; preds = %1, %3
  ret void
}